target datalayout = "e-m:e-p270:32:32-p271:32:32-p272:64:64-i64:64-i128:128-f80:128-n8:16:32:64-S128"
target triple = "x86_64-pc-linux-gnu"

@proto_tn5250 = internal global i32 0, align 4
@.str.837 = private unnamed_addr constant [16 x i8] c"TN5250 Protocol\00", align 1
@.str.838 = private unnamed_addr constant [7 x i8] c"TN5250\00", align 1
@.str.839 = private unnamed_addr constant [7 x i8] c"tn5250\00", align 1

; Function Attrs: null_pointer_is_valid sspstrong uwtable
define hidden void @proto_register_tn5250() #0 {
  %1 = alloca ptr, align 8
  call void @llvm.lifetime.start.p0(i64 8, ptr %1) #8
  %2 = call i32 @proto_register_protocol(ptr noundef @.str.837, ptr noundef @.str.838, ptr noundef @.str.839)
  store i32 %2, ptr @proto_tn5250, align 4
  %3 = load i32, ptr @proto_tn5250, align 4
  %4 = call ptr @register_dissector(ptr noundef @.str.839, ptr noundef @dissect_tn5250, i32 noundef %3)
  %5 = load i32, ptr @proto_tn5250, align 4
  call void @proto_register_field_array(i32 noundef %5, ptr noundef @proto_register_tn5250.hf, i32 noundef 551)
  call void @proto_register_subtree_array(ptr noundef @proto_register_tn5250.ett, i32 noundef 43)
  %6 = load i32, ptr @proto_tn5250, align 4
  %7 = call ptr @expert_register_protocol(i32 noundef %6)
  store ptr %7, ptr %1, align 8
  %8 = load ptr, ptr %1, align 8
  call void @expert_register_field_array(ptr noundef %8, ptr noundef @proto_register_tn5250.ei, i32 noundef 1)
  call void @llvm.lifetime.end.p0(i64 8, ptr %1) #8
  ret void
}